; Function Attrs: mustprogress uwtable
define void @_ZN6icu_7531FormattedValueStringBuilderImpl14appendSpanInfoE14UFieldCategoryiiiR10UErrorCode(ptr nocapture noundef nonnull align 8 dereferenceable(300) %this, i32 noundef %category, i32 noundef %spanValue, i32 noundef %start, i32 noundef %length, ptr nocapture noundef nonnull align 4 dereferenceable(4) %status) local_unnamed_addr #1 align 2 {
entry:
  %0 = load i32, ptr %status, align 4
  %cmp.i = icmp slt i32 %0, 1
  br i1 %cmp.i, label %if.end, label %return

if.end:                                           ; preds = %entry
  %spanIndices = getelementptr inbounds i8, ptr %this, i64 152
  %capacity.i = getelementptr inbounds i8, ptr %this, i64 160
  %1 = load i32, ptr %capacity.i, align 8
  %spanIndicesCount = getelementptr inbounds i8, ptr %this, i64 296
  %2 = load i32, ptr %spanIndicesCount, align 8
  %cmp = icmp eq i32 %1, %2
  br i1 %cmp, label %if.then3, label %if.end.if.end11_crit_edge

if.end.if.end11_crit_edge:                        ; preds = %if.end
  %.pre7 = load ptr, ptr %spanIndices, align 8
  br label %if.end11

if.then3:                                         ; preds = %if.end
  %mul = shl nsw i32 %1, 1
  %cmp.i2 = icmp sgt i32 %1, 0
  br i1 %cmp.i2, label %if.then.i, label %if.then9

if.then.i:                                        ; preds = %if.then3
  %conv.i3 = zext nneg i32 %mul to i64
  %mul.i = shl nuw nsw i64 %conv.i3, 4
  %call.i = tail call noalias ptr @uprv_malloc_75(i64 noundef %mul.i) #10
  %cmp2.not.i = icmp eq ptr %call.i, null
  br i1 %cmp2.not.i, label %if.then9, label %if.then5.i

if.then5.i:                                       ; preds = %if.then.i
  %3 = load i32, ptr %capacity.i, align 8
  %spec.select.i = tail call i32 @llvm.smin.i32(i32 %3, i32 %1)
  %length.addr.1.i = tail call i32 @llvm.smin.i32(i32 %spec.select.i, i32 %mul)
  %4 = load ptr, ptr %spanIndices, align 8
  %conv12.i = sext i32 %length.addr.1.i to i64
  %mul13.i = shl nsw i64 %conv12.i, 4
  tail call void @llvm.memcpy.p0.p0.i64(ptr nonnull align 4 %call.i, ptr align 4 %4, i64 %mul13.i, i1 false)
  %needToRelease.i.i = getelementptr inbounds i8, ptr %this, i64 164
  %5 = load i8, ptr %needToRelease.i.i, align 4
  %tobool.not.i.i = icmp eq i8 %5, 0
  br i1 %tobool.not.i.i, label %_ZN6icu_7515MaybeStackArrayINS_8SpanInfoELi8EE6resizeEii.exit, label %if.then.i.i

if.then.i.i:                                      ; preds = %if.then5.i
  tail call void @uprv_free_75(ptr noundef %4)
  br label %_ZN6icu_7515MaybeStackArrayINS_8SpanInfoELi8EE6resizeEii.exit

_ZN6icu_7515MaybeStackArrayINS_8SpanInfoELi8EE6resizeEii.exit: ; preds = %if.then5.i, %if.then.i.i
  store ptr %call.i, ptr %spanIndices, align 8
  store i32 %mul, ptr %capacity.i, align 8
  store i8 1, ptr %needToRelease.i.i, align 4
  %.pre = load i32, ptr %spanIndicesCount, align 8
  br label %if.end11

if.then9:                                         ; preds = %if.then.i, %if.then3
  store i32 7, ptr %status, align 4
  br label %return

if.end11:                                         ; preds = %if.end.if.end11_crit_edge, %_ZN6icu_7515MaybeStackArrayINS_8SpanInfoELi8EE6resizeEii.exit
  %6 = phi ptr [ %call.i, %_ZN6icu_7515MaybeStackArrayINS_8SpanInfoELi8EE6resizeEii.exit ], [ %.pre7, %if.end.if.end11_crit_edge ]
  %7 = phi i32 [ %.pre, %_ZN6icu_7515MaybeStackArrayINS_8SpanInfoELi8EE6resizeEii.exit ], [ %2, %if.end.if.end11_crit_edge ]
  %conv = sext i32 %7 to i64
  %arrayidx.i = getelementptr inbounds %"struct.icu_75::SpanInfo", ptr %6, i64 %conv
  store i32 %category, ptr %arrayidx.i, align 4
  %ref.tmp.sroa.2.0.call18.sroa_idx = getelementptr inbounds i8, ptr %arrayidx.i, i64 4
  store i32 %spanValue, ptr %ref.tmp.sroa.2.0.call18.sroa_idx, align 4
  %ref.tmp.sroa.3.0.call18.sroa_idx = getelementptr inbounds i8, ptr %arrayidx.i, i64 8
  store i32 %start, ptr %ref.tmp.sroa.3.0.call18.sroa_idx, align 4
  %ref.tmp.sroa.4.0.call18.sroa_idx = getelementptr inbounds i8, ptr %arrayidx.i, i64 12
  store i32 %length, ptr %ref.tmp.sroa.4.0.call18.sroa_idx, align 4
  %8 = load i32, ptr %spanIndicesCount, align 8
  %inc = add nsw i32 %8, 1
  store i32 %inc, ptr %spanIndicesCount, align 8
  br label %return

return:                                           ; preds = %entry, %if.end11, %if.then9
  ret void
}